; ModuleID = 'source-C-CXX/39/3097.c'
source_filename = "source-C-CXX/39/3097.c"
target datalayout = "e-m:e-p270:32:32-p271:32:32-p272:64:64-i64:64-f80:128-n8:16:32:64-S128"
target triple = "x86_64-pc-linux-gnu"

@.str = private unnamed_addr constant [3 x i8] c"%f\00", align 1
@.str.1 = private unnamed_addr constant [14 x i8] c"Invalid input\00", align 1
@.str.2 = private unnamed_addr constant [5 x i8] c"%.4f\00", align 1

; Function Attrs: nofree nounwind sspstrong uwtable
define dso_local i32 @main() local_unnamed_addr #0 {
  %1 = alloca [4 x float], align 16
  %2 = alloca float, align 4
  %3 = bitcast [4 x float]* %1 to i8*
  call void @llvm.lifetime.start.p0i8(i64 16, i8* nonnull %3) #4
  %4 = bitcast float* %2 to i8*
  call void @llvm.lifetime.start.p0i8(i64 4, i8* nonnull %4) #4
  %5 = getelementptr inbounds [4 x float], [4 x float]* %1, i64 0, i64 0
  %6 = call i32 (i8*, ...) @__isoc99_scanf(i8* getelementptr inbounds ([3 x i8], [3 x i8]* @.str, i64 0, i64 0), float* nonnull %5)
  %7 = getelementptr inbounds [4 x float], [4 x float]* %1, i64 0, i64 1
  %8 = call i32 (i8*, ...) @__isoc99_scanf(i8* getelementptr inbounds ([3 x i8], [3 x i8]* @.str, i64 0, i64 0), float* nonnull %7)
  %9 = getelementptr inbounds [4 x float], [4 x float]* %1, i64 0, i64 2
  %10 = call i32 (i8*, ...) @__isoc99_scanf(i8* getelementptr inbounds ([3 x i8], [3 x i8]* @.str, i64 0, i64 0), float* nonnull %9)
  %11 = getelementptr inbounds [4 x float], [4 x float]* %1, i64 0, i64 3
  %12 = call i32 (i8*, ...) @__isoc99_scanf(i8* getelementptr inbounds ([3 x i8], [3 x i8]* @.str, i64 0, i64 0), float* nonnull %11)
  %13 = call i32 (i8*, ...) @__isoc99_scanf(i8* getelementptr inbounds ([3 x i8], [3 x i8]* @.str, i64 0, i64 0), float* nonnull %2)
  %14 = load float, float* %2, align 4, !tbaa !5
  %15 = fpext float %14 to double
  %16 = fmul double %15, 0x401921FB4D12D84A
  %17 = fdiv double %16, 3.600000e+02
  %18 = fptrunc double %17 to float
  store float %18, float* %2, align 4, !tbaa !5
  %19 = load float, float* %5, align 16, !tbaa !5
  %20 = load float, float* %7, align 4, !tbaa !5
  %21 = fadd float %19, %20
  %22 = load float, float* %9, align 8, !tbaa !5
  %23 = fadd float %21, %22
  %24 = load float, float* %11, align 4, !tbaa !5
  %25 = fadd float %23, %24
  %26 = fmul float %25, 5.000000e-01
  %27 = fsub float %26, %19
  %28 = fsub float %26, %20
  %29 = fmul float %27, %28
  %30 = fsub float %26, %22
  %31 = fmul float %30, %29
  %32 = fsub float %26, %24
  %33 = fmul float %32, %31
  %34 = fpext float %33 to double
  %35 = fmul float %19, %20
  %36 = fmul float %35, %22
  %37 = fmul float %36, %24
  %38 = fpext float %37 to double
  %39 = fmul float %18, 5.000000e-01
  %40 = fpext float %39 to double
  %41 = call double @cos(double %40) #4
  %42 = fmul double %41, %38
  %43 = load float, float* %2, align 4, !tbaa !5
  %44 = fmul float %43, 5.000000e-01
  %45 = fpext float %44 to double
  %46 = call double @cos(double %45) #4
  %47 = fmul double %42, %46
  %48 = fsub double %34, %47
  %49 = fcmp olt double %48, 0.000000e+00
  br i1 %49, label %50, label %52

50:                                               ; preds = %0
  %51 = call i32 (i8*, ...) @printf(i8* nonnull dereferenceable(1) getelementptr inbounds ([14 x i8], [14 x i8]* @.str.1, i64 0, i64 0))
  br label %55

52:                                               ; preds = %0
  %53 = call double @sqrt(double %48) #4
  %54 = call i32 (i8*, ...) @printf(i8* nonnull dereferenceable(1) getelementptr inbounds ([5 x i8], [5 x i8]* @.str.2, i64 0, i64 0), double %53)
  br label %55

55:                                               ; preds = %52, %50
  call void @llvm.lifetime.end.p0i8(i64 4, i8* nonnull %4) #4
  call void @llvm.lifetime.end.p0i8(i64 16, i8* nonnull %3) #4
  ret i32 0
}

; Function Attrs: argmemonly mustprogress nofree nosync nounwind willreturn
declare void @llvm.lifetime.start.p0i8(i64 immarg, i8* nocapture) #1

; Function Attrs: nofree nounwind
declare noundef i32 @__isoc99_scanf(i8* nocapture noundef readonly, ...) local_unnamed_addr #2

; Function Attrs: mustprogress nofree nounwind willreturn
declare double @cos(double) local_unnamed_addr #3

; Function Attrs: nofree nounwind
declare noundef i32 @printf(i8* nocapture noundef readonly, ...) local_unnamed_addr #2

; Function Attrs: mustprogress nofree nounwind willreturn
declare double @sqrt(double) local_unnamed_addr #3

; Function Attrs: argmemonly mustprogress nofree nosync nounwind willreturn
declare void @llvm.lifetime.end.p0i8(i64 immarg, i8* nocapture) #1


!llvm.module.flags = !{!0, !1, !2, !3}
!llvm.ident = !{!4}

!0 = !{i32 1, !"wchar_size", i32 4}
!1 = !{i32 7, !"PIC Level", i32 2}
!2 = !{i32 7, !"PIE Level", i32 2}
!3 = !{i32 7, !"uwtable", i32 1}
!4 = !{!"clang version 13.0.0"}
!5 = !{!6, !6, i64 0}
!6 = !{!"float", !7, i64 0}
!7 = !{!"omnipotent char", !8, i64 0}
!8 = !{!"Simple C/C++ TBAA"}
